; Function Attrs: mustprogress nounwind willreturn uwtable
define ptr @Abc_ObjDressClass(ptr noundef captures(none) %0, ptr noundef readonly captures(none) %1, i32 noundef %2) local_unnamed_addr #5 {
  %4 = getelementptr i8, ptr %1, i64 8
  %.val13 = load ptr, ptr %4, align 8
  %5 = sext i32 %2 to i64
  %6 = getelementptr inbounds i32, ptr %.val13, i64 %5
  %7 = load i32, ptr %6, align 4
  %8 = icmp sgt i32 %7, 0
  br i1 %8, label %9, label %13

9:                                                ; preds = %3
  %10 = getelementptr i8, ptr %0, i64 8
  %.val11 = load ptr, ptr %10, align 8
  %11 = zext nneg i32 %7 to i64
  %12 = getelementptr inbounds nuw ptr, ptr %.val11, i64 %11
  br label %52

13:                                               ; preds = %3
  %14 = getelementptr i8, ptr %0, i64 4
  %.val = load i32, ptr %14, align 4
  store i32 %.val, ptr %6, align 4
  %15 = tail call noalias dereferenceable_or_null(16) ptr @malloc(i64 noundef 16) #21
  %16 = getelementptr inbounds nuw i8, ptr %15, i64 4
  store i32 0, ptr %16, align 4
  store i32 16, ptr %15, align 8
  %17 = tail call noalias dereferenceable_or_null(64) ptr @malloc(i64 noundef 64) #21
  %18 = getelementptr inbounds nuw i8, ptr %15, i64 8
  store ptr %17, ptr %18, align 8
  %19 = load i32, ptr %0, align 8
  %20 = icmp eq i32 %.val, %19
  br i1 %20, label %21, label %.Vec_PtrGrow.exit11_crit_edge.i

.Vec_PtrGrow.exit11_crit_edge.i:                  ; preds = %13
  %.phi.trans.insert.i = getelementptr inbounds nuw i8, ptr %0, i64 8
  %.pre.i = load ptr, ptr %.phi.trans.insert.i, align 8
  br label %Vec_PtrPush.exit

21:                                               ; preds = %13
  %22 = icmp slt i32 %.val, 16
  br i1 %22, label %23, label %31

23:                                               ; preds = %21
  %24 = getelementptr inbounds nuw i8, ptr %0, i64 8
  %25 = load ptr, ptr %24, align 8
  %.not9.i.i = icmp eq ptr %25, null
  br i1 %.not9.i.i, label %28, label %26

26:                                               ; preds = %23
  %27 = tail call dereferenceable_or_null(128) ptr @realloc(ptr noundef nonnull %25, i64 noundef 128) #22
  br label %Vec_PtrGrow.exit.i

28:                                               ; preds = %23
  %29 = tail call noalias dereferenceable_or_null(128) ptr @malloc(i64 noundef 128) #21
  br label %Vec_PtrGrow.exit.i

Vec_PtrGrow.exit.i:                               ; preds = %28, %26
  %30 = phi ptr [ %27, %26 ], [ %29, %28 ]
  store ptr %30, ptr %24, align 8
  store i32 16, ptr %0, align 8
  br label %Vec_PtrPush.exit

31:                                               ; preds = %21
  %32 = shl nuw nsw i32 %.val, 1
  %33 = getelementptr inbounds nuw i8, ptr %0, i64 8
  %34 = load ptr, ptr %33, align 8
  %.not9.i10.i = icmp eq ptr %34, null
  %35 = zext nneg i32 %32 to i64
  %36 = shl nuw nsw i64 %35, 3
  br i1 %.not9.i10.i, label %39, label %37

37:                                               ; preds = %31
  %38 = tail call ptr @realloc(ptr noundef nonnull %34, i64 noundef %36) #22
  br label %41

39:                                               ; preds = %31
  %40 = tail call noalias ptr @malloc(i64 noundef %36) #21
  br label %41

41:                                               ; preds = %39, %37
  %42 = phi ptr [ %38, %37 ], [ %40, %39 ]
  store ptr %42, ptr %33, align 8
  store i32 %32, ptr %0, align 8
  br label %Vec_PtrPush.exit

Vec_PtrPush.exit:                                 ; preds = %.Vec_PtrGrow.exit11_crit_edge.i, %Vec_PtrGrow.exit.i, %41
  %43 = phi ptr [ %.pre.i, %.Vec_PtrGrow.exit11_crit_edge.i ], [ %42, %41 ], [ %30, %Vec_PtrGrow.exit.i ]
  %44 = load i32, ptr %14, align 4
  %45 = add nsw i32 %44, 1
  store i32 %45, ptr %14, align 4
  %46 = sext i32 %44 to i64
  %47 = getelementptr inbounds ptr, ptr %43, i64 %46
  store ptr %15, ptr %47, align 8
  %.val14 = load i32, ptr %14, align 4
  %48 = getelementptr i8, ptr %0, i64 8
  %.val15 = load ptr, ptr %48, align 8
  %49 = sext i32 %.val14 to i64
  %50 = getelementptr ptr, ptr %.val15, i64 %49
  %51 = getelementptr i8, ptr %50, i64 -8
  br label %52

52:                                               ; preds = %Vec_PtrPush.exit, %9
  %.0.in = phi ptr [ %12, %9 ], [ %51, %Vec_PtrPush.exit ]
  %.0 = load ptr, ptr %.0.in, align 8
  ret ptr %.0
}